target datalayout = "e-m:e-p270:32:32-p271:32:32-p272:64:64-i64:64-i128:128-f80:128-n8:16:32:64-S128"
target triple = "x86_64-pc-linux-gnu"

%class.ShenandoahPhaseTimings = type { i32, [316 x double], [316 x %class.HdrSeq], [316 x ptr], ptr }
%class.HdrSeq = type { %class.NumberSeq, ptr }
%class.NumberSeq = type { %class.AbsSeq, double, double }
%class.AbsSeq = type { ptr, i32, double, double, double, double, double }
%class.WorkerDataArray = type { ptr, i32, ptr, ptr, i8, [9 x ptr] }

; Function Attrs: mustprogress nounwind uwtable
define linkonce_odr hidden void @_ZN15WorkerDataArrayIdE7set_allEd(ptr noundef nonnull align 8 dereferenceable(112) %0, double noundef %1) #1 comdat align 2 {
  %3 = alloca ptr, align 8
  %4 = alloca double, align 8
  %5 = alloca i32, align 4
  store ptr %0, ptr %3, align 8
  store double %1, ptr %4, align 8
  %6 = load ptr, ptr %3, align 8
  store i32 0, ptr %5, align 4
  br label %7

7:                                                ; preds = %19, %2
  %8 = load i32, ptr %5, align 4
  %9 = getelementptr inbounds %class.WorkerDataArray, ptr %6, i32 0, i32 1
  %10 = load i32, ptr %9, align 8
  %11 = icmp ult i32 %8, %10
  br i1 %11, label %12, label %22

12:                                               ; preds = %7
  %13 = load double, ptr %4, align 8
  %14 = getelementptr inbounds %class.WorkerDataArray, ptr %6, i32 0, i32 0
  %15 = load ptr, ptr %14, align 8
  %16 = load i32, ptr %5, align 4
  %17 = zext i32 %16 to i64
  %18 = getelementptr inbounds double, ptr %15, i64 %17
  store double %13, ptr %18, align 8
  br label %19

19:                                               ; preds = %12
  %20 = load i32, ptr %5, align 4
  %21 = add i32 %20, 1
  store i32 %21, ptr %5, align 4
  br label %7, !llvm.loop !33

22:                                               ; preds = %7
  ret void
}

; Function Attrs: mustprogress nounwind uwtable
define hidden noundef i32 @_ZN22ShenandoahPhaseTimings16worker_par_phaseENS_5PhaseENS_8ParPhaseE(ptr noundef nonnull align 8 dereferenceable(30352) %0, i32 noundef %1, i32 noundef %2) #1 align 2 {
  %4 = alloca ptr, align 8
  %5 = alloca i32, align 4
  %6 = alloca i32, align 4
  %7 = alloca i32, align 4
  store ptr %0, ptr %4, align 8
  store i32 %1, ptr %5, align 4
  store i32 %2, ptr %6, align 4
  %8 = load i32, ptr %5, align 4
  %9 = add nsw i32 %8, 1
  %10 = load i32, ptr %6, align 4
  %11 = add nsw i32 %9, %10
  store i32 %11, ptr %7, align 4
  %12 = load i32, ptr %7, align 4
  ret i32 %12
}

; Function Attrs: mustprogress nounwind uwtable
define linkonce_odr hidden void @_ZN15WorkerDataArrayIdE5resetEv(ptr noundef nonnull align 8 dereferenceable(112) %0) #1 comdat align 2 {
  %2 = alloca ptr, align 8
  %3 = alloca i32, align 4
  store ptr %0, ptr %2, align 8
  %4 = load ptr, ptr %2, align 8
  %5 = call noundef double @_ZN15WorkerDataArrayIdE13uninitializedEv()
  call void @_ZN15WorkerDataArrayIdE7set_allEd(ptr noundef nonnull align 8 dereferenceable(112) %4, double noundef %5)
  store i32 0, ptr %3, align 4
  br label %6

6:                                                ; preds = %23, %1
  %7 = load i32, ptr %3, align 4
  %8 = icmp ult i32 %7, 9
  br i1 %8, label %9, label %26

9:                                                ; preds = %6
  %10 = getelementptr inbounds %class.WorkerDataArray, ptr %4, i32 0, i32 5
  %11 = load i32, ptr %3, align 4
  %12 = zext i32 %11 to i64
  %13 = getelementptr inbounds [9 x ptr], ptr %10, i64 0, i64 %12
  %14 = load ptr, ptr %13, align 8
  %15 = icmp ne ptr %14, null
  br i1 %15, label %16, label %22

16:                                               ; preds = %9
  %17 = getelementptr inbounds %class.WorkerDataArray, ptr %4, i32 0, i32 5
  %18 = load i32, ptr %3, align 4
  %19 = zext i32 %18 to i64
  %20 = getelementptr inbounds [9 x ptr], ptr %17, i64 0, i64 %19
  %21 = load ptr, ptr %20, align 8
  call void @_ZN15WorkerDataArrayImE5resetEv(ptr noundef nonnull align 8 dereferenceable(112) %21)
  br label %22

22:                                               ; preds = %16, %9
  br label %23

23:                                               ; preds = %22
  %24 = load i32, ptr %3, align 4
  %25 = add i32 %24, 1
  store i32 %25, ptr %3, align 4
  br label %6, !llvm.loop !11

26:                                               ; preds = %6
  ret void
}

; Function Attrs: mustprogress nounwind uwtable
define hidden noundef ptr @_ZN22ShenandoahPhaseTimings11worker_dataENS_5PhaseENS_8ParPhaseE(ptr noundef nonnull align 8 dereferenceable(30352) %0, i32 noundef %1, i32 noundef %2) #1 align 2 {
  %4 = alloca ptr, align 8
  %5 = alloca i32, align 4
  %6 = alloca i32, align 4
  %7 = alloca i32, align 4
  %8 = alloca ptr, align 8
  store ptr %0, ptr %4, align 8
  store i32 %1, ptr %5, align 4
  store i32 %2, ptr %6, align 4
  %9 = load ptr, ptr %4, align 8
  %10 = load i32, ptr %5, align 4
  %11 = load i32, ptr %6, align 4
  %12 = call noundef i32 @_ZN22ShenandoahPhaseTimings16worker_par_phaseENS_5PhaseENS_8ParPhaseE(ptr noundef nonnull align 8 dereferenceable(30352) %9, i32 noundef %10, i32 noundef %11)
  store i32 %12, ptr %7, align 4
  %13 = getelementptr inbounds %class.ShenandoahPhaseTimings, ptr %9, i32 0, i32 3
  %14 = load i32, ptr %7, align 4
  %15 = zext i32 %14 to i64
  %16 = getelementptr inbounds [316 x ptr], ptr %13, i64 0, i64 %15
  %17 = load ptr, ptr %16, align 8
  store ptr %17, ptr %8, align 8
  %18 = load ptr, ptr %8, align 8
  ret ptr %18
}

; Function Attrs: mustprogress nounwind uwtable
define hidden void @_ZN22ShenandoahPhaseTimings20record_workers_startENS_5PhaseE(ptr noundef nonnull align 8 dereferenceable(30352) %0, i32 noundef %1) #1 align 2 {
  %3 = alloca ptr, align 8
  %4 = alloca i32, align 4
  %5 = alloca i32, align 4
  store ptr %0, ptr %3, align 8
  store i32 %1, ptr %4, align 4
  %6 = load ptr, ptr %3, align 8
  %7 = load i32, ptr %4, align 4
  %8 = icmp eq i32 %7, 305
  br i1 %8, label %9, label %21

9:                                                ; preds = %2
  store i32 1, ptr %5, align 4
  br label %10

10:                                               ; preds = %17, %9
  %11 = load i32, ptr %5, align 4
  %12 = icmp ult i32 %11, 10
  br i1 %12, label %13, label %20

13:                                               ; preds = %10
  %14 = load i32, ptr %4, align 4
  %15 = load i32, ptr %5, align 4
  %16 = call noundef ptr @_ZN22ShenandoahPhaseTimings11worker_dataENS_5PhaseENS_8ParPhaseE(ptr noundef nonnull align 8 dereferenceable(30352) %6, i32 noundef %14, i32 noundef %15)
  call void @_ZN15WorkerDataArrayIdE5resetEv(ptr noundef nonnull align 8 dereferenceable(112) %16)
  br label %17

17:                                               ; preds = %13
  %18 = load i32, ptr %5, align 4
  %19 = add i32 %18, 1
  store i32 %19, ptr %5, align 4
  br label %10, !llvm.loop !10

20:                                               ; preds = %10
  br label %21

21:                                               ; preds = %20, %2
  ret void
}