; Function Attrs: mustprogress nounwind uwtable
define hidden void @_ZN22ShenandoahPhaseTimings20record_workers_startENS_5PhaseE(ptr nocapture noundef nonnull readonly align 8 dereferenceable(30352) %0, i32 noundef %1) local_unnamed_addr #1 align 2 {
  %3 = icmp eq i32 %1, 305
  br i1 %3, label %.preheader, label %.loopexit

.preheader:                                       ; preds = %2
  %4 = getelementptr inbounds i8, ptr %0, i64 27816
  br label %5

5:                                                ; preds = %.preheader, %_ZN15WorkerDataArrayIdE5resetEv.exit
  %indvars.iv = phi i64 [ 1, %.preheader ], [ %indvars.iv.next, %_ZN15WorkerDataArrayIdE5resetEv.exit ]
  %6 = add nuw nsw i64 %indvars.iv, 306
  %7 = getelementptr inbounds [316 x ptr], ptr %4, i64 0, i64 %6
  %8 = load ptr, ptr %7, align 8
  %9 = tail call noundef double @_ZN15WorkerDataArrayIdE13uninitializedEv() #12
  %10 = getelementptr inbounds i8, ptr %8, i64 8
  %11 = load i32, ptr %10, align 8
  %.not.i.i = icmp eq i32 %11, 0
  br i1 %.not.i.i, label %_ZN15WorkerDataArrayIdE7set_allEd.exit.i, label %.lr.ph.i.i

.lr.ph.i.i:                                       ; preds = %5, %.lr.ph.i.i
  %indvars.iv.i.i = phi i64 [ %indvars.iv.next.i.i, %.lr.ph.i.i ], [ 0, %5 ]
  %12 = load ptr, ptr %8, align 8
  %13 = getelementptr inbounds double, ptr %12, i64 %indvars.iv.i.i
  store double %9, ptr %13, align 8
  %indvars.iv.next.i.i = add nuw nsw i64 %indvars.iv.i.i, 1
  %14 = load i32, ptr %10, align 8
  %15 = zext i32 %14 to i64
  %16 = icmp ult i64 %indvars.iv.next.i.i, %15
  br i1 %16, label %.lr.ph.i.i, label %_ZN15WorkerDataArrayIdE7set_allEd.exit.i, !llvm.loop !8

_ZN15WorkerDataArrayIdE7set_allEd.exit.i:         ; preds = %.lr.ph.i.i, %5
  %17 = getelementptr inbounds i8, ptr %8, i64 40
  br label %18

18:                                               ; preds = %22, %_ZN15WorkerDataArrayIdE7set_allEd.exit.i
  %indvars.iv.i = phi i64 [ 0, %_ZN15WorkerDataArrayIdE7set_allEd.exit.i ], [ %indvars.iv.next.i, %22 ]
  %19 = getelementptr inbounds [9 x ptr], ptr %17, i64 0, i64 %indvars.iv.i
  %20 = load ptr, ptr %19, align 8
  %.not.i = icmp eq ptr %20, null
  br i1 %.not.i, label %22, label %21

21:                                               ; preds = %18
  tail call void @_ZN15WorkerDataArrayImE5resetEv(ptr noundef nonnull align 8 dereferenceable(112) %20)
  br label %22

22:                                               ; preds = %21, %18
  %indvars.iv.next.i = add nuw nsw i64 %indvars.iv.i, 1
  %exitcond.not.i = icmp eq i64 %indvars.iv.next.i, 9
  br i1 %exitcond.not.i, label %_ZN15WorkerDataArrayIdE5resetEv.exit, label %18, !llvm.loop !9

_ZN15WorkerDataArrayIdE5resetEv.exit:             ; preds = %22
  %indvars.iv.next = add nuw nsw i64 %indvars.iv, 1
  %exitcond.not = icmp eq i64 %indvars.iv.next, 10
  br i1 %exitcond.not, label %.loopexit, label %5, !llvm.loop !11

.loopexit:                                        ; preds = %_ZN15WorkerDataArrayIdE5resetEv.exit, %2
  ret void
}